(lp0
(S'avrdude'
p1
S'/Applications/Arduino.app/Contents/Resources/Java/hardware/tools/avr/bin/avrdude'
p2
tp3
a(S'elfflags'
p4
ccopy_reg
_reconstructor
p5
(cino.utils
SpaceList
p6
c__builtin__
list
p7
(lp8
S'-Os'
p9
aS'-Wl,--gc-sections'
p10
aS'-mmcu=atmega328p'
p11
atp12
Rp13
tp14
a(S'version.txt'
p15
S'/Applications/Arduino.app/Contents/Resources/Java/lib/version.txt'
p16
tp17
a(S'avrdude.conf'
p18
S'/Applications/Arduino.app/Contents/Resources/Java/hardware/tools/avr/etc/avrdude.conf'
p19
tp20
a(S'cc'
p21
S'/Applications/Arduino.app/Contents/Resources/Java/hardware/tools/avr/bin/avr-gcc'
p22
tp23
a(S'stty'
p24
S'/bin/stty'
p25
tp26
a(S'build_dir'
p27
S'.build/uno'
p28
tp29
a(S'arduino_core_dir'
p30
S'/Applications/Arduino.app/Contents/Resources/Java/hardware/arduino/cores/arduino'
p31
tp32
a(S'boards.txt'
p33
S'/Applications/Arduino.app/Contents/Resources/Java/hardware/arduino/boards.txt'
p34
tp35
a(S'cxxflags'
p36
g5
(g6
g7
(lp37
S'-fno-exceptions'
p38
atp39
Rp40
tp41
a(S'arduino_variants_dir'
p42
S'/Applications/Arduino.app/Contents/Resources/Java/hardware/arduino/variants'
p43
tp44
a(S'deps'
p45
g5
(g6
g7
(lp46
tp47
Rp48
tp49
a(S'ar'
p50
S'/Applications/Arduino.app/Contents/Resources/Java/hardware/tools/avr/bin/avr-ar'
p51
tp52
a(S'names'
p53
(dp54
S'cpp'
p55
S'%s.cpp'
p56
sS'obj'
p57
S'%s.o'
p58
sS'lib'
p59
S'lib%s.a'
p60
sS'deps'
p61
S'%s.d'
p62
stp63
a(S'cflags'
p64
g5
(g6
g7
(lp65
g11
aS'-ffunction-sections'
p66
aS'-fdata-sections'
p67
aS'-g'
p68
ag9
aS'-w'
p69
aS'-DF_CPU=16000000L'
p70
aS'-DARDUINO=100'
p71
aS'-I/Applications/Arduino.app/Contents/Resources/Java/hardware/arduino/cores/arduino'
p72
aS'-I/Applications/Arduino.app/Contents/Resources/Java/hardware/arduino/variants/standard'
p73
atp74
Rp75
tp76
a(S'arduino_libraries_dir'
p77
S'/Applications/Arduino.app/Contents/Resources/Java/libraries'
p78
tp79
a(S'arduino_lib_version'
p80
g5
(cino.environment
Version
p81
c__builtin__
tuple
p82
(I1
I0
tp83
tp84
Rp85
tp86
a(S'objcopy'
p87
S'/Applications/Arduino.app/Contents/Resources/Java/hardware/tools/avr/bin/avr-objcopy'
p88
tp89
a(S'board_models'
p90
cino.environment
BoardModels
p91
((lp92
(lp93
S'uno'
p94
a(dp95
S'bootloader'
p96
(dp97
S'extended_fuses'
p98
S'0x05'
p99
sS'high_fuses'
p100
S'0xde'
p101
sS'low_fuses'
p102
S'0xff'
p103
sS'lock_bits'
p104
S'0x0F'
p105
sS'file'
p106
S'optiboot_atmega328.hex'
p107
sS'path'
p108
S'optiboot'
p109
sS'unlock_bits'
p110
S'0x3F'
p111
ssS'upload'
p112
(dp113
S'speed'
p114
S'115200'
p115
sS'maximum_size'
p116
S'32256'
p117
sS'protocol'
p118
S'arduino'
p119
ssS'name'
p120
S'Arduino Uno'
p121
sS'build'
p122
(dp123
S'core'
p124
S'arduino'
p125
sS'mcu'
p126
S'atmega328p'
p127
sS'f_cpu'
p128
S'16000000L'
p129
sS'variant'
p130
S'standard'
p131
ssaa(lp132
S'atmega328'
p133
a(dp134
S'bootloader'
p135
(dp136
S'extended_fuses'
p137
S'0x05'
p138
sS'high_fuses'
p139
S'0xDA'
p140
sS'low_fuses'
p141
S'0xFF'
p142
sS'lock_bits'
p143
S'0x0F'
p144
sS'file'
p145
S'ATmegaBOOT_168_atmega328.hex'
p146
sS'path'
p147
S'atmega'
p148
sS'unlock_bits'
p149
S'0x3F'
p150
ssS'upload'
p151
(dp152
S'speed'
p153
S'57600'
p154
sS'maximum_size'
p155
S'30720'
p156
sS'protocol'
p157
S'arduino'
p158
ssS'name'
p159
S'Arduino Duemilanove w/ ATmega328'
p160
sS'build'
p161
(dp162
S'core'
p163
S'arduino'
p164
sS'mcu'
p165
S'atmega328p'
p166
sS'f_cpu'
p167
S'16000000L'
p168
sS'variant'
p169
S'standard'
p170
ssaa(lp171
S'diecimila'
p172
a(dp173
S'bootloader'
p174
(dp175
S'extended_fuses'
p176
S'0x00'
p177
sS'high_fuses'
p178
S'0xdd'
p179
sS'low_fuses'
p180
S'0xff'
p181
sS'lock_bits'
p182
S'0x0F'
p183
sS'file'
p184
S'ATmegaBOOT_168_diecimila.hex'
p185
sS'path'
p186
S'atmega'
p187
sS'unlock_bits'
p188
S'0x3F'
p189
ssS'upload'
p190
(dp191
S'speed'
p192
S'19200'
p193
sS'maximum_size'
p194
S'14336'
p195
sS'protocol'
p196
S'arduino'
p197
ssS'name'
p198
S'Arduino Diecimila or Duemilanove w/ ATmega168'
p199
sS'build'
p200
(dp201
S'core'
p202
S'arduino'
p203
sS'mcu'
p204
S'atmega168'
p205
sS'f_cpu'
p206
S'16000000L'
p207
sS'variant'
p208
S'standard'
p209
ssaa(lp210
S'nano328'
p211
a(dp212
S'bootloader'
p213
(dp214
S'extended_fuses'
p215
S'0x05'
p216
sS'high_fuses'
p217
S'0xDA'
p218
sS'low_fuses'
p219
S'0xFF'
p220
sS'lock_bits'
p221
S'0x0F'
p222
sS'file'
p223
S'ATmegaBOOT_168_atmega328.hex'
p224
sS'path'
p225
S'atmega'
p226
sS'unlock_bits'
p227
S'0x3F'
p228
ssS'upload'
p229
(dp230
S'speed'
p231
S'57600'
p232
sS'maximum_size'
p233
S'30720'
p234
sS'protocol'
p235
S'arduino'
p236
ssS'name'
p237
S'Arduino Nano w/ ATmega328'
p238
sS'build'
p239
(dp240
S'core'
p241
S'arduino'
p242
sS'mcu'
p243
S'atmega328p'
p244
sS'f_cpu'
p245
S'16000000L'
p246
sS'variant'
p247
S'eightanaloginputs'
p248
ssaa(lp249
S'nano'
p250
a(dp251
S'bootloader'
p252
(dp253
S'extended_fuses'
p254
S'0x00'
p255
sS'high_fuses'
p256
S'0xdd'
p257
sS'low_fuses'
p258
S'0xff'
p259
sS'lock_bits'
p260
S'0x0F'
p261
sS'file'
p262
S'ATmegaBOOT_168_diecimila.hex'
p263
sS'path'
p264
S'atmega'
p265
sS'unlock_bits'
p266
S'0x3F'
p267
ssS'upload'
p268
(dp269
S'speed'
p270
S'19200'
p271
sS'maximum_size'
p272
S'14336'
p273
sS'protocol'
p274
S'arduino'
p275
ssS'name'
p276
S'Arduino Nano w/ ATmega168'
p277
sS'build'
p278
(dp279
S'core'
p280
S'arduino'
p281
sS'mcu'
p282
S'atmega168'
p283
sS'f_cpu'
p284
S'16000000L'
p285
sS'variant'
p286
S'eightanaloginputs'
p287
ssaa(lp288
S'mega2560'
p289
a(dp290
S'bootloader'
p291
(dp292
S'extended_fuses'
p293
S'0xFD'
p294
sS'high_fuses'
p295
S'0xD8'
p296
sS'low_fuses'
p297
S'0xFF'
p298
sS'lock_bits'
p299
S'0x0F'
p300
sS'file'
p301
S'stk500boot_v2_mega2560.hex'
p302
sS'path'
p303
S'stk500v2'
p304
sS'unlock_bits'
p305
S'0x3F'
p306
ssS'upload'
p307
(dp308
S'speed'
p309
S'115200'
p310
sS'maximum_size'
p311
S'258048'
p312
sS'protocol'
p313
S'wiring'
p314
ssS'name'
p315
S'Arduino Mega 2560 or Mega ADK'
p316
sS'build'
p317
(dp318
S'core'
p319
S'arduino'
p320
sS'mcu'
p321
S'atmega2560'
p322
sS'f_cpu'
p323
S'16000000L'
p324
sS'variant'
p325
S'mega'
p326
ssaa(lp327
S'mega'
p328
a(dp329
S'bootloader'
p330
(dp331
S'extended_fuses'
p332
S'0xF5'
p333
sS'high_fuses'
p334
S'0xDA'
p335
sS'low_fuses'
p336
S'0xFF'
p337
sS'lock_bits'
p338
S'0x0F'
p339
sS'file'
p340
S'ATmegaBOOT_168_atmega1280.hex'
p341
sS'path'
p342
S'atmega'
p343
sS'unlock_bits'
p344
S'0x3F'
p345
ssS'upload'
p346
(dp347
S'speed'
p348
S'57600'
p349
sS'maximum_size'
p350
S'126976'
p351
sS'protocol'
p352
S'arduino'
p353
ssS'name'
p354
S'Arduino Mega (ATmega1280)'
p355
sS'build'
p356
(dp357
S'core'
p358
S'arduino'
p359
sS'mcu'
p360
S'atmega1280'
p361
sS'f_cpu'
p362
S'16000000L'
p363
sS'variant'
p364
S'mega'
p365
ssaa(lp366
S'leonardo'
p367
a(dp368
S'bootloader'
p369
(dp370
S'extended_fuses'
p371
S'0xcb'
p372
sS'high_fuses'
p373
S'0xd8'
p374
sS'low_fuses'
p375
S'0xff'
p376
sS'lock_bits'
p377
S'0x2F'
p378
sS'file'
p379
S'Caterina-Leonardo.hex'
p380
sS'path'
p381
S'caterina'
p382
sS'unlock_bits'
p383
S'0x3F'
p384
ssS'upload'
p385
(dp386
S'speed'
p387
S'57600'
p388
sS'maximum_size'
p389
S'28672'
p390
sS'protocol'
p391
S'avr109'
p392
sS'disable_flushing'
p393
S'true'
p394
ssS'name'
p395
S'Arduino Leonardo'
p396
sS'build'
p397
(dp398
S'core'
p399
S'arduino'
p400
sS'f_cpu'
p401
S'16000000L'
p402
sS'vid'
p403
S'0x2341'
p404
sS'pid'
p405
S'0x8036'
p406
sS'variant'
p407
S'leonardo'
p408
sS'mcu'
p409
S'atmega32u4'
p410
ssaa(lp411
S'micro'
p412
a(dp413
S'bootloader'
p414
(dp415
S'extended_fuses'
p416
S'0xcb'
p417
sS'high_fuses'
p418
S'0xd8'
p419
sS'low_fuses'
p420
S'0xff'
p421
sS'lock_bits'
p422
S'0x2F'
p423
sS'file'
p424
S'Caterina-Micro.hex'
p425
sS'path'
p426
S'caterina'
p427
sS'unlock_bits'
p428
S'0x3F'
p429
ssS'upload'
p430
(dp431
S'speed'
p432
S'57600'
p433
sS'maximum_size'
p434
S'28672'
p435
sS'protocol'
p436
S'avr109'
p437
sS'disable_flushing'
p438
S'true'
p439
ssS'name'
p440
S'Arduino Micro'
p441
sS'build'
p442
(dp443
S'core'
p444
S'arduino'
p445
sS'f_cpu'
p446
S'16000000L'
p447
sS'vid'
p448
S'0x2341'
p449
sS'pid'
p450
S'0x8037'
p451
sS'variant'
p452
S'micro'
p453
sS'mcu'
p454
S'atmega32u4'
p455
ssaa(lp456
S'mini328'
p457
a(dp458
S'bootloader'
p459
(dp460
S'extended_fuses'
p461
S'0x05'
p462
sS'high_fuses'
p463
S'0xd8'
p464
sS'low_fuses'
p465
S'0xff'
p466
sS'lock_bits'
p467
S'0x0F'
p468
sS'file'
p469
S'optiboot_atmega328-Mini.hex'
p470
sS'path'
p471
S'optiboot'
p472
sS'unlock_bits'
p473
S'0x3F'
p474
ssS'upload'
p475
(dp476
S'speed'
p477
S'115200'
p478
sS'maximum_size'
p479
S'28672'
p480
sS'protocol'
p481
S'arduino'
p482
ssS'name'
p483
S'Arduino Mini w/ ATmega328'
p484
sS'build'
p485
(dp486
S'core'
p487
S'arduino'
p488
sS'mcu'
p489
S'atmega328p'
p490
sS'f_cpu'
p491
S'16000000L'
p492
sS'variant'
p493
S'eightanaloginputs'
p494
ssaa(lp495
S'mini'
p496
a(dp497
S'bootloader'
p498
(dp499
S'extended_fuses'
p500
S'0x00'
p501
sS'high_fuses'
p502
S'0xdd'
p503
sS'low_fuses'
p504
S'0xff'
p505
sS'lock_bits'
p506
S'0x0F'
p507
sS'file'
p508
S'ATmegaBOOT_168_ng.hex'
p509
sS'path'
p510
S'atmega'
p511
sS'unlock_bits'
p512
S'0x3F'
p513
ssS'upload'
p514
(dp515
S'speed'
p516
S'19200'
p517
sS'maximum_size'
p518
S'14336'
p519
sS'protocol'
p520
S'arduino'
p521
ssS'name'
p522
S'Arduino Mini w/ ATmega168'
p523
sS'build'
p524
(dp525
S'core'
p526
S'arduino'
p527
sS'mcu'
p528
S'atmega168'
p529
sS'f_cpu'
p530
S'16000000L'
p531
sS'variant'
p532
S'eightanaloginputs'
p533
ssaa(lp534
S'ethernet'
p535
a(dp536
S'bootloader'
p537
(dp538
S'extended_fuses'
p539
S'0x05'
p540
sS'high_fuses'
p541
S'0xde'
p542
sS'low_fuses'
p543
S'0xff'
p544
sS'lock_bits'
p545
S'0x0F'
p546
sS'file'
p547
S'optiboot_atmega328.hex'
p548
sS'path'
p549
S'optiboot'
p550
sS'unlock_bits'
p551
S'0x3F'
p552
ssS'upload'
p553
(dp554
S'speed'
p555
S'115200'
p556
sS'maximum_size'
p557
S'32256'
p558
sS'protocol'
p559
S'arduino'
p560
ssS'name'
p561
S'Arduino Ethernet'
p562
sS'build'
p563
(dp564
S'f_cpu'
p565
S'16000000L'
p566
sS'mcu'
p567
S'atmega328p'
p568
sS'variant'
p569
S'standard'
p570
sS'core'
p571
S'arduino'
p572
ssaa(lp573
S'fio'
p574
a(dp575
S'bootloader'
p576
(dp577
S'extended_fuses'
p578
S'0x05'
p579
sS'high_fuses'
p580
S'0xDA'
p581
sS'low_fuses'
p582
S'0xFF'
p583
sS'lock_bits'
p584
S'0x0F'
p585
sS'file'
p586
S'ATmegaBOOT_168_atmega328_pro_8MHz.hex'
p587
sS'path'
p588
S'arduino:atmega'
p589
sS'unlock_bits'
p590
S'0x3F'
p591
ssS'upload'
p592
(dp593
S'speed'
p594
S'57600'
p595
sS'maximum_size'
p596
S'30720'
p597
sS'protocol'
p598
S'arduino'
p599
ssS'name'
p600
S'Arduino Fio'
p601
sS'build'
p602
(dp603
S'core'
p604
S'arduino'
p605
sS'mcu'
p606
S'atmega328p'
p607
sS'f_cpu'
p608
S'8000000L'
p609
sS'variant'
p610
S'eightanaloginputs'
p611
ssaa(lp612
S'bt328'
p613
a(dp614
S'bootloader'
p615
(dp616
S'extended_fuses'
p617
S'0x05'
p618
sS'high_fuses'
p619
S'0xd8'
p620
sS'low_fuses'
p621
S'0xff'
p622
sS'lock_bits'
p623
S'0x0F'
p624
sS'file'
p625
S'ATmegaBOOT_168_atmega328_bt.hex'
p626
sS'path'
p627
S'bt'
p628
sS'unlock_bits'
p629
S'0x3F'
p630
ssS'upload'
p631
(dp632
S'speed'
p633
S'19200'
p634
sS'maximum_size'
p635
S'28672'
p636
sS'protocol'
p637
S'arduino'
p638
sS'disable_flushing'
p639
S'true'
p640
ssS'name'
p641
S'Arduino BT w/ ATmega328'
p642
sS'build'
p643
(dp644
S'core'
p645
S'arduino'
p646
sS'mcu'
p647
S'atmega328p'
p648
sS'f_cpu'
p649
S'16000000L'
p650
sS'variant'
p651
S'eightanaloginputs'
p652
ssaa(lp653
S'bt'
p654
a(dp655
S'bootloader'
p656
(dp657
S'extended_fuses'
p658
S'0x00'
p659
sS'high_fuses'
p660
S'0xdd'
p661
sS'low_fuses'
p662
S'0xff'
p663
sS'lock_bits'
p664
S'0x0F'
p665
sS'file'
p666
S'ATmegaBOOT_168.hex'
p667
sS'path'
p668
S'bt'
p669
sS'unlock_bits'
p670
S'0x3F'
p671
ssS'upload'
p672
(dp673
S'speed'
p674
S'19200'
p675
sS'maximum_size'
p676
S'14336'
p677
sS'protocol'
p678
S'arduino'
p679
sS'disable_flushing'
p680
S'true'
p681
ssS'name'
p682
S'Arduino BT w/ ATmega168'
p683
sS'build'
p684
(dp685
S'core'
p686
S'arduino'
p687
sS'mcu'
p688
S'atmega168'
p689
sS'f_cpu'
p690
S'16000000L'
p691
sS'variant'
p692
S'eightanaloginputs'
p693
ssaa(lp694
S'LilyPadUSB'
p695
a(dp696
S'bootloader'
p697
(dp698
S'extended_fuses'
p699
S'0xce'
p700
sS'high_fuses'
p701
S'0xd8'
p702
sS'low_fuses'
p703
S'0xff'
p704
sS'lock_bits'
p705
S'0x2F'
p706
sS'file'
p707
S'Caterina-LilyPadUSB.hex'
p708
sS'path'
p709
S'caterina-LilyPadUSB'
p710
sS'unlock_bits'
p711
S'0x3F'
p712
ssS'upload'
p713
(dp714
S'speed'
p715
S'57600'
p716
sS'maximum_size'
p717
S'28672'
p718
sS'protocol'
p719
S'avr109'
p720
sS'disable_flushing'
p721
S'true'
p722
ssS'name'
p723
S'LilyPad Arduino USB'
p724
sS'build'
p725
(dp726
S'core'
p727
S'arduino'
p728
sS'f_cpu'
p729
S'8000000L'
p730
sS'vid'
p731
S'0x1B4F'
p732
sS'pid'
p733
S'0x9208'
p734
sS'variant'
p735
S'leonardo'
p736
sS'mcu'
p737
S'atmega32u4'
p738
ssaa(lp739
S'lilypad328'
p740
a(dp741
S'bootloader'
p742
(dp743
S'extended_fuses'
p744
S'0x05'
p745
sS'high_fuses'
p746
S'0xDA'
p747
sS'low_fuses'
p748
S'0xFF'
p749
sS'lock_bits'
p750
S'0x0F'
p751
sS'file'
p752
S'ATmegaBOOT_168_atmega328_pro_8MHz.hex'
p753
sS'path'
p754
S'atmega'
p755
sS'unlock_bits'
p756
S'0x3F'
p757
ssS'upload'
p758
(dp759
S'speed'
p760
S'57600'
p761
sS'maximum_size'
p762
S'30720'
p763
sS'protocol'
p764
S'arduino'
p765
ssS'name'
p766
S'LilyPad Arduino w/ ATmega328'
p767
sS'build'
p768
(dp769
S'core'
p770
S'arduino'
p771
sS'mcu'
p772
S'atmega328p'
p773
sS'f_cpu'
p774
S'8000000L'
p775
sS'variant'
p776
S'standard'
p777
ssaa(lp778
S'lilypad'
p779
a(dp780
S'bootloader'
p781
(dp782
S'extended_fuses'
p783
S'0x00'
p784
sS'high_fuses'
p785
S'0xdd'
p786
sS'low_fuses'
p787
S'0xe2'
p788
sS'lock_bits'
p789
S'0x0F'
p790
sS'file'
p791
S'LilyPadBOOT_168.hex'
p792
sS'path'
p793
S'lilypad'
p794
sS'unlock_bits'
p795
S'0x3F'
p796
ssS'upload'
p797
(dp798
S'speed'
p799
S'19200'
p800
sS'maximum_size'
p801
S'14336'
p802
sS'protocol'
p803
S'arduino'
p804
ssS'name'
p805
S'LilyPad Arduino w/ ATmega168'
p806
sS'build'
p807
(dp808
S'core'
p809
S'arduino'
p810
sS'mcu'
p811
S'atmega168'
p812
sS'f_cpu'
p813
S'8000000L'
p814
sS'variant'
p815
S'standard'
p816
ssaa(lp817
S'pro5v328'
p818
a(dp819
S'bootloader'
p820
(dp821
S'extended_fuses'
p822
S'0x05'
p823
sS'high_fuses'
p824
S'0xDA'
p825
sS'low_fuses'
p826
S'0xFF'
p827
sS'lock_bits'
p828
S'0x0F'
p829
sS'file'
p830
S'ATmegaBOOT_168_atmega328.hex'
p831
sS'path'
p832
S'atmega'
p833
sS'unlock_bits'
p834
S'0x3F'
p835
ssS'upload'
p836
(dp837
S'speed'
p838
S'57600'
p839
sS'maximum_size'
p840
S'30720'
p841
sS'protocol'
p842
S'arduino'
p843
ssS'name'
p844
S'Arduino Pro or Pro Mini (5V, 16 MHz) w/ ATmega328'
p845
sS'build'
p846
(dp847
S'core'
p848
S'arduino'
p849
sS'mcu'
p850
S'atmega328p'
p851
sS'f_cpu'
p852
S'16000000L'
p853
sS'variant'
p854
S'standard'
p855
ssaa(lp856
S'pro5v'
p857
a(dp858
S'bootloader'
p859
(dp860
S'extended_fuses'
p861
S'0x00'
p862
sS'high_fuses'
p863
S'0xdd'
p864
sS'low_fuses'
p865
S'0xff'
p866
sS'lock_bits'
p867
S'0x0F'
p868
sS'file'
p869
S'ATmegaBOOT_168_diecimila.hex'
p870
sS'path'
p871
S'atmega'
p872
sS'unlock_bits'
p873
S'0x3F'
p874
ssS'upload'
p875
(dp876
S'speed'
p877
S'19200'
p878
sS'maximum_size'
p879
S'14336'
p880
sS'protocol'
p881
S'arduino'
p882
ssS'name'
p883
S'Arduino Pro or Pro Mini (5V, 16 MHz) w/ ATmega168'
p884
sS'build'
p885
(dp886
S'core'
p887
S'arduino'
p888
sS'mcu'
p889
S'atmega168'
p890
sS'f_cpu'
p891
S'16000000L'
p892
sS'variant'
p893
S'standard'
p894
ssaa(lp895
S'pro328'
p896
a(dp897
S'bootloader'
p898
(dp899
S'extended_fuses'
p900
S'0x05'
p901
sS'high_fuses'
p902
S'0xDA'
p903
sS'low_fuses'
p904
S'0xFF'
p905
sS'lock_bits'
p906
S'0x0F'
p907
sS'file'
p908
S'ATmegaBOOT_168_atmega328_pro_8MHz.hex'
p909
sS'path'
p910
S'atmega'
p911
sS'unlock_bits'
p912
S'0x3F'
p913
ssS'upload'
p914
(dp915
S'speed'
p916
S'57600'
p917
sS'maximum_size'
p918
S'30720'
p919
sS'protocol'
p920
S'arduino'
p921
ssS'name'
p922
S'Arduino Pro or Pro Mini (3.3V, 8 MHz) w/ ATmega328'
p923
sS'build'
p924
(dp925
S'core'
p926
S'arduino'
p927
sS'mcu'
p928
S'atmega328p'
p929
sS'f_cpu'
p930
S'8000000L'
p931
sS'variant'
p932
S'standard'
p933
ssaa(lp934
S'pro'
p935
a(dp936
S'bootloader'
p937
(dp938
S'extended_fuses'
p939
S'0x00'
p940
sS'high_fuses'
p941
S'0xdd'
p942
sS'low_fuses'
p943
S'0xc6'
p944
sS'lock_bits'
p945
S'0x0F'
p946
sS'file'
p947
S'ATmegaBOOT_168_pro_8MHz.hex'
p948
sS'path'
p949
S'atmega'
p950
sS'unlock_bits'
p951
S'0x3F'
p952
ssS'upload'
p953
(dp954
S'speed'
p955
S'19200'
p956
sS'maximum_size'
p957
S'14336'
p958
sS'protocol'
p959
S'arduino'
p960
ssS'name'
p961
S'Arduino Pro or Pro Mini (3.3V, 8 MHz) w/ ATmega168'
p962
sS'build'
p963
(dp964
S'core'
p965
S'arduino'
p966
sS'mcu'
p967
S'atmega168'
p968
sS'f_cpu'
p969
S'8000000L'
p970
sS'variant'
p971
S'standard'
p972
ssaa(lp973
S'atmega168'
p974
a(dp975
S'bootloader'
p976
(dp977
S'extended_fuses'
p978
S'0x00'
p979
sS'high_fuses'
p980
S'0xdd'
p981
sS'low_fuses'
p982
S'0xff'
p983
sS'lock_bits'
p984
S'0x0F'
p985
sS'file'
p986
S'ATmegaBOOT_168_ng.hex'
p987
sS'path'
p988
S'atmega'
p989
sS'unlock_bits'
p990
S'0x3F'
p991
ssS'upload'
p992
(dp993
S'speed'
p994
S'19200'
p995
sS'maximum_size'
p996
S'14336'
p997
sS'protocol'
p998
S'arduino'
p999
ssS'name'
p1000
S'Arduino NG or older w/ ATmega168'
p1001
sS'build'
p1002
(dp1003
S'core'
p1004
S'arduino'
p1005
sS'mcu'
p1006
S'atmega168'
p1007
sS'f_cpu'
p1008
S'16000000L'
p1009
sS'variant'
p1010
S'standard'
p1011
ssaa(lp1012
S'atmega8'
p1013
a(dp1014
S'bootloader'
p1015
(dp1016
S'high_fuses'
p1017
S'0xca'
p1018
sS'low_fuses'
p1019
S'0xdf'
p1020
sS'lock_bits'
p1021
S'0x0F'
p1022
sS'file'
p1023
S'ATmegaBOOT.hex'
p1024
sS'path'
p1025
S'atmega8'
p1026
sS'unlock_bits'
p1027
S'0x3F'
p1028
ssS'upload'
p1029
(dp1030
S'speed'
p1031
S'19200'
p1032
sS'maximum_size'
p1033
S'7168'
p1034
sS'protocol'
p1035
S'arduino'
p1036
ssS'name'
p1037
S'Arduino NG or older w/ ATmega8'
p1038
sS'build'
p1039
(dp1040
S'core'
p1041
S'arduino'
p1042
sS'mcu'
p1043
S'atmega8'
p1044
sS'f_cpu'
p1045
S'16000000L'
p1046
sS'variant'
p1047
S'standard'
p1048
ssaatp1049
Rp1050
(dp1051
S'default'
p1052
S'uno'
p1053
sbtp1054
a(S'cxx'
p1055
S'/Applications/Arduino.app/Contents/Resources/Java/hardware/tools/avr/bin/avr-g++'
p1056
tp1057
a.